target datalayout = "e-m:e-p270:32:32-p271:32:32-p272:64:64-i64:64-i128:128-f80:128-n8:16:32:64-S128"
target triple = "x86_64-pc-linux-gnu"

%struct.ident_t = type { i32, i32, i32, i32, ptr }
%"class.ncnn::Mat" = type { ptr, ptr, i64, i32, ptr, i32, i32, i32, i32, i32, i64 }
%"class.ncnn::ReLU" = type <{ %"class.ncnn::Layer", float, [4 x i8] }>
%"class.ncnn::Layer" = type { ptr, i8, i8, i8, i8, i8, i8, i8, i8, i8, i8, i8, i8, i8, i8, i8, i8, i8, i8, i8, i8, i32, ptr, i32, %"class.std::__cxx11::basic_string", %"class.std::__cxx11::basic_string", %"class.std::vector", %"class.std::vector", %"class.std::vector.3", %"class.std::vector.3" }
%"class.std::__cxx11::basic_string" = type { %"struct.std::__cxx11::basic_string<char>::_Alloc_hider", i64, %union.anon }
%"struct.std::__cxx11::basic_string<char>::_Alloc_hider" = type { ptr }
%union.anon = type { i64, [8 x i8] }
%"class.std::vector" = type { %"struct.std::_Vector_base" }
%"struct.std::_Vector_base" = type { %"struct.std::_Vector_base<int, std::allocator<int>>::_Vector_impl" }
%"struct.std::_Vector_base<int, std::allocator<int>>::_Vector_impl" = type { %"struct.std::_Vector_base<int, std::allocator<int>>::_Vector_impl_data" }
%"struct.std::_Vector_base<int, std::allocator<int>>::_Vector_impl_data" = type { ptr, ptr, ptr }
%"class.std::vector.3" = type { %"struct.std::_Vector_base.4" }
%"struct.std::_Vector_base.4" = type { %"struct.std::_Vector_base<ncnn::Mat, std::allocator<ncnn::Mat>>::_Vector_impl" }
%"struct.std::_Vector_base<ncnn::Mat, std::allocator<ncnn::Mat>>::_Vector_impl" = type { %"struct.std::_Vector_base<ncnn::Mat, std::allocator<ncnn::Mat>>::_Vector_impl_data" }
%"struct.std::_Vector_base<ncnn::Mat, std::allocator<ncnn::Mat>>::_Vector_impl_data" = type { ptr, ptr, ptr }
%"class.ncnn::Option" = type { i8, i32, ptr, ptr, i32, i8, i8, i8, i8, i8, i8, i8, i8, i8, i8, i8, i8, i8, i8, i8, i8, i8, i8, i8, i8, i32, i8, i8, i8, i8, i8, i8, i8, i8, i8, i8, i8, i8 }

@2 = private unnamed_addr constant %struct.ident_t { i32 0, i32 2, i32 0, i32 22, ptr @0 }, align 8

; Function Attrs: mustprogress nounwind uwtable
define hidden noundef i32 @_ZNK4ncnn15ReLU_x86_avx51220forward_inplace_int8ERNS_3MatERKNS_6OptionE(ptr noundef nonnull align 8 dereferenceable(212) %0, ptr noundef nonnull align 8 dereferenceable(72) %1, ptr noundef nonnull align 8 dereferenceable(64) %2) #6 align 2 {
  %4 = alloca i32, align 4
  %5 = alloca ptr, align 8
  %6 = alloca ptr, align 8
  %7 = alloca ptr, align 8
  %8 = alloca i32, align 4
  %9 = alloca i32, align 4
  %10 = alloca i32, align 4
  %11 = alloca i32, align 4
  %12 = alloca i32, align 4
  %13 = alloca i32, align 4
  %14 = alloca i32, align 4
  %15 = call i32 @__kmpc_global_thread_num(ptr @2)
  store ptr %0, ptr %5, align 8, !tbaa !4
  store ptr %1, ptr %6, align 8, !tbaa !9
  store ptr %2, ptr %7, align 8, !tbaa !11
  %16 = load ptr, ptr %5, align 8
  call void @llvm.lifetime.start.p0(i64 4, ptr %8) #8
  %17 = load ptr, ptr %6, align 8, !tbaa !9
  %18 = getelementptr inbounds nuw %"class.ncnn::Mat", ptr %17, i32 0, i32 6
  %19 = load i32, ptr %18, align 4, !tbaa !15
  store i32 %19, ptr %8, align 4, !tbaa !13
  call void @llvm.lifetime.start.p0(i64 4, ptr %9) #8
  %20 = load ptr, ptr %6, align 8, !tbaa !9
  %21 = getelementptr inbounds nuw %"class.ncnn::Mat", ptr %20, i32 0, i32 7
  %22 = load i32, ptr %21, align 8, !tbaa !20
  store i32 %22, ptr %9, align 4, !tbaa !13
  call void @llvm.lifetime.start.p0(i64 4, ptr %10) #8
  %23 = load ptr, ptr %6, align 8, !tbaa !9
  %24 = getelementptr inbounds nuw %"class.ncnn::Mat", ptr %23, i32 0, i32 8
  %25 = load i32, ptr %24, align 4, !tbaa !21
  store i32 %25, ptr %10, align 4, !tbaa !13
  call void @llvm.lifetime.start.p0(i64 4, ptr %11) #8
  %26 = load ptr, ptr %6, align 8, !tbaa !9
  %27 = getelementptr inbounds nuw %"class.ncnn::Mat", ptr %26, i32 0, i32 9
  %28 = load i32, ptr %27, align 8, !tbaa !22
  store i32 %28, ptr %11, align 4, !tbaa !13
  call void @llvm.lifetime.start.p0(i64 4, ptr %12) #8
  %29 = load i32, ptr %8, align 4, !tbaa !13
  %30 = load i32, ptr %9, align 4, !tbaa !13
  %31 = mul nsw i32 %29, %30
  %32 = load i32, ptr %10, align 4, !tbaa !13
  %33 = mul nsw i32 %31, %32
  store i32 %33, ptr %12, align 4, !tbaa !13
  call void @llvm.lifetime.start.p0(i64 4, ptr %13) #8
  %34 = load ptr, ptr %6, align 8, !tbaa !9
  %35 = getelementptr inbounds nuw %"class.ncnn::Mat", ptr %34, i32 0, i32 3
  %36 = load i32, ptr %35, align 8, !tbaa !23
  store i32 %36, ptr %13, align 4, !tbaa !13
  %37 = load i32, ptr %13, align 4, !tbaa !13
  %38 = icmp eq i32 %37, 8
  br i1 %38, label %39, label %50

39:                                               ; preds = %3
  %40 = getelementptr inbounds nuw %"class.ncnn::ReLU", ptr %16, i32 0, i32 1
  %41 = load float, ptr %40, align 8, !tbaa !24
  %42 = fcmp fast oeq float %41, 0.000000e+00
  br i1 %42, label %43, label %48

43:                                               ; preds = %39
  %44 = load ptr, ptr %7, align 8, !tbaa !11
  %45 = getelementptr inbounds nuw %"class.ncnn::Option", ptr %44, i32 0, i32 1
  %46 = load i32, ptr %45, align 4, !tbaa !40
  call void @__kmpc_push_num_threads(ptr @2, i32 %15, i32 %46)
  %47 = load ptr, ptr %6, align 8, !tbaa !9
  call void (ptr, i32, ptr, ...) @__kmpc_fork_call(ptr @2, i32 3, ptr @_ZNK4ncnn15ReLU_x86_avx51220forward_inplace_int8ERNS_3MatERKNS_6OptionE.omp_outlined, ptr %11, ptr %47, ptr %12)
  br label %49

48:                                               ; preds = %39
  br label %49

49:                                               ; preds = %48, %43
  store i32 0, ptr %4, align 4
  store i32 1, ptr %14, align 4
  br label %61

50:                                               ; preds = %3
  %51 = getelementptr inbounds nuw %"class.ncnn::ReLU", ptr %16, i32 0, i32 1
  %52 = load float, ptr %51, align 8, !tbaa !24
  %53 = fcmp fast oeq float %52, 0.000000e+00
  br i1 %53, label %54, label %59

54:                                               ; preds = %50
  %55 = load ptr, ptr %7, align 8, !tbaa !11
  %56 = getelementptr inbounds nuw %"class.ncnn::Option", ptr %55, i32 0, i32 1
  %57 = load i32, ptr %56, align 4, !tbaa !40
  call void @__kmpc_push_num_threads(ptr @2, i32 %15, i32 %57)
  %58 = load ptr, ptr %6, align 8, !tbaa !9
  call void (ptr, i32, ptr, ...) @__kmpc_fork_call(ptr @2, i32 3, ptr @_ZNK4ncnn15ReLU_x86_avx51220forward_inplace_int8ERNS_3MatERKNS_6OptionE.omp_outlined.2, ptr %11, ptr %58, ptr %12)
  br label %60

59:                                               ; preds = %50
  br label %60

60:                                               ; preds = %59, %54
  store i32 0, ptr %4, align 4
  store i32 1, ptr %14, align 4
  br label %61

61:                                               ; preds = %60, %49
  call void @llvm.lifetime.end.p0(i64 4, ptr %13) #8
  call void @llvm.lifetime.end.p0(i64 4, ptr %12) #8
  call void @llvm.lifetime.end.p0(i64 4, ptr %11) #8
  call void @llvm.lifetime.end.p0(i64 4, ptr %10) #8
  call void @llvm.lifetime.end.p0(i64 4, ptr %9) #8
  call void @llvm.lifetime.end.p0(i64 4, ptr %8) #8
  %62 = load i32, ptr %4, align 4
  ret i32 %62
}

; Function Attrs: alwaysinline mustprogress nounwind uwtable
define linkonce_odr hidden noundef i32 @_ZNK4ncnn3Mat8elembitsEv(ptr noundef nonnull align 8 dereferenceable(72) %0) #5 comdat align 2 {
  %2 = alloca ptr, align 8
  store ptr %0, ptr %2, align 8, !tbaa !9
  %3 = load ptr, ptr %2, align 8
  %4 = getelementptr inbounds nuw %"class.ncnn::Mat", ptr %3, i32 0, i32 3
  %5 = load i32, ptr %4, align 8, !tbaa !23
  %6 = icmp ne i32 %5, 0
  br i1 %6, label %7, label %15

7:                                                ; preds = %1
  %8 = getelementptr inbounds nuw %"class.ncnn::Mat", ptr %3, i32 0, i32 2
  %9 = load i64, ptr %8, align 8, !tbaa !45
  %10 = mul i64 %9, 8
  %11 = trunc i64 %10 to i32
  %12 = getelementptr inbounds nuw %"class.ncnn::Mat", ptr %3, i32 0, i32 3
  %13 = load i32, ptr %12, align 8, !tbaa !23
  %14 = sdiv i32 %11, %13
  br label %16

15:                                               ; preds = %1
  br label %16

16:                                               ; preds = %15, %7
  %17 = phi i32 [ %14, %7 ], [ 0, %15 ]
  ret i32 %17
}

; Function Attrs: mustprogress uwtable
define hidden noundef i32 @_ZNK4ncnn15ReLU_x86_avx51215forward_inplaceERNS_3MatERKNS_6OptionE(ptr noundef nonnull align 8 dereferenceable(212) %0, ptr noundef nonnull align 8 dereferenceable(72) %1, ptr noundef nonnull align 8 dereferenceable(64) %2) unnamed_addr #3 align 2 {
  %4 = alloca i32, align 4
  %5 = alloca ptr, align 8
  %6 = alloca ptr, align 8
  %7 = alloca ptr, align 8
  %8 = alloca i32, align 4
  %9 = alloca i32, align 4
  %10 = alloca i32, align 4
  %11 = alloca i32, align 4
  %12 = alloca i32, align 4
  %13 = alloca i32, align 4
  %14 = alloca i32, align 4
  %15 = alloca i32, align 4
  %16 = call i32 @__kmpc_global_thread_num(ptr @2)
  store ptr %0, ptr %5, align 8, !tbaa !4
  store ptr %1, ptr %6, align 8, !tbaa !9
  store ptr %2, ptr %7, align 8, !tbaa !11
  %17 = load ptr, ptr %5, align 8
  call void @llvm.lifetime.start.p0(i64 4, ptr %8) #8
  %18 = load ptr, ptr %6, align 8, !tbaa !9
  %19 = call noundef i32 @_ZNK4ncnn3Mat8elembitsEv(ptr noundef nonnull align 8 dereferenceable(72) %18)
  store i32 %19, ptr %8, align 4, !tbaa !13
  %20 = load i32, ptr %8, align 4, !tbaa !13
  %21 = icmp eq i32 %20, 8
  br i1 %21, label %22, label %26

22:                                               ; preds = %3
  %23 = load ptr, ptr %6, align 8, !tbaa !9
  %24 = load ptr, ptr %7, align 8, !tbaa !11
  %25 = call noundef i32 @_ZNK4ncnn15ReLU_x86_avx51220forward_inplace_int8ERNS_3MatERKNS_6OptionE(ptr noundef nonnull align 8 dereferenceable(212) %17, ptr noundef nonnull align 8 dereferenceable(72) %23, ptr noundef nonnull align 8 dereferenceable(64) %24)
  store i32 %25, ptr %4, align 4
  store i32 1, ptr %9, align 4
  br label %63

26:                                               ; preds = %3
  call void @llvm.lifetime.start.p0(i64 4, ptr %10) #8
  %27 = load ptr, ptr %6, align 8, !tbaa !9
  %28 = getelementptr inbounds nuw %"class.ncnn::Mat", ptr %27, i32 0, i32 6
  %29 = load i32, ptr %28, align 4, !tbaa !15
  store i32 %29, ptr %10, align 4, !tbaa !13
  call void @llvm.lifetime.start.p0(i64 4, ptr %11) #8
  %30 = load ptr, ptr %6, align 8, !tbaa !9
  %31 = getelementptr inbounds nuw %"class.ncnn::Mat", ptr %30, i32 0, i32 7
  %32 = load i32, ptr %31, align 8, !tbaa !20
  store i32 %32, ptr %11, align 4, !tbaa !13
  call void @llvm.lifetime.start.p0(i64 4, ptr %12) #8
  %33 = load ptr, ptr %6, align 8, !tbaa !9
  %34 = getelementptr inbounds nuw %"class.ncnn::Mat", ptr %33, i32 0, i32 8
  %35 = load i32, ptr %34, align 4, !tbaa !21
  store i32 %35, ptr %12, align 4, !tbaa !13
  call void @llvm.lifetime.start.p0(i64 4, ptr %13) #8
  %36 = load ptr, ptr %6, align 8, !tbaa !9
  %37 = getelementptr inbounds nuw %"class.ncnn::Mat", ptr %36, i32 0, i32 9
  %38 = load i32, ptr %37, align 8, !tbaa !22
  store i32 %38, ptr %13, align 4, !tbaa !13
  call void @llvm.lifetime.start.p0(i64 4, ptr %14) #8
  %39 = load ptr, ptr %6, align 8, !tbaa !9
  %40 = getelementptr inbounds nuw %"class.ncnn::Mat", ptr %39, i32 0, i32 3
  %41 = load i32, ptr %40, align 8, !tbaa !23
  store i32 %41, ptr %14, align 4, !tbaa !13
  call void @llvm.lifetime.start.p0(i64 4, ptr %15) #8
  %42 = load i32, ptr %10, align 4, !tbaa !13
  %43 = load i32, ptr %11, align 4, !tbaa !13
  %44 = mul nsw i32 %42, %43
  %45 = load i32, ptr %12, align 4, !tbaa !13
  %46 = mul nsw i32 %44, %45
  %47 = load i32, ptr %14, align 4, !tbaa !13
  %48 = mul nsw i32 %46, %47
  store i32 %48, ptr %15, align 4, !tbaa !13
  %49 = getelementptr inbounds nuw %"class.ncnn::ReLU", ptr %17, i32 0, i32 1
  %50 = load float, ptr %49, align 8, !tbaa !24
  %51 = fcmp fast oeq float %50, 0.000000e+00
  br i1 %51, label %52, label %57

52:                                               ; preds = %26
  %53 = load ptr, ptr %7, align 8, !tbaa !11
  %54 = getelementptr inbounds nuw %"class.ncnn::Option", ptr %53, i32 0, i32 1
  %55 = load i32, ptr %54, align 4, !tbaa !40
  call void @__kmpc_push_num_threads(ptr @2, i32 %16, i32 %55)
  %56 = load ptr, ptr %6, align 8, !tbaa !9
  call void (ptr, i32, ptr, ...) @__kmpc_fork_call(ptr @2, i32 3, ptr @_ZNK4ncnn15ReLU_x86_avx51215forward_inplaceERNS_3MatERKNS_6OptionE.omp_outlined, ptr %13, ptr %56, ptr %15)
  br label %62

57:                                               ; preds = %26
  %58 = load ptr, ptr %7, align 8, !tbaa !11
  %59 = getelementptr inbounds nuw %"class.ncnn::Option", ptr %58, i32 0, i32 1
  %60 = load i32, ptr %59, align 4, !tbaa !40
  call void @__kmpc_push_num_threads(ptr @2, i32 %16, i32 %60)
  %61 = load ptr, ptr %6, align 8, !tbaa !9
  call void (ptr, i32, ptr, ...) @__kmpc_fork_call(ptr @2, i32 4, ptr @_ZNK4ncnn15ReLU_x86_avx51215forward_inplaceERNS_3MatERKNS_6OptionE.omp_outlined.1, ptr %13, ptr %61, ptr %17, ptr %15)
  br label %62

62:                                               ; preds = %57, %52
  store i32 0, ptr %4, align 4
  store i32 1, ptr %9, align 4
  call void @llvm.lifetime.end.p0(i64 4, ptr %15) #8
  call void @llvm.lifetime.end.p0(i64 4, ptr %14) #8
  call void @llvm.lifetime.end.p0(i64 4, ptr %13) #8
  call void @llvm.lifetime.end.p0(i64 4, ptr %12) #8
  call void @llvm.lifetime.end.p0(i64 4, ptr %11) #8
  call void @llvm.lifetime.end.p0(i64 4, ptr %10) #8
  br label %63

63:                                               ; preds = %62, %22
  call void @llvm.lifetime.end.p0(i64 4, ptr %8) #8
  %64 = load i32, ptr %4, align 4
  ret i32 %64
}