; Function Attrs: mustprogress nounwind uwtable
define hidden noundef i32 @_ZNK4ncnn15ReLU_x86_avx51215forward_inplaceERNS_3MatERKNS_6OptionE(ptr noundef nonnull align 8 dereferenceable(212) %0, ptr noundef nonnull align 8 dereferenceable(72) %1, ptr noundef nonnull readonly align 8 captures(none) dereferenceable(64) %2) unnamed_addr #3 align 2 {
  %4 = alloca i32, align 4
  %5 = alloca i32, align 4
  %6 = alloca i32, align 4
  %7 = alloca i32, align 4
  %8 = tail call i32 @__kmpc_global_thread_num(ptr nonnull @2)
  %9 = getelementptr inbounds nuw i8, ptr %1, i64 24
  %10 = load i32, ptr %9, align 8, !tbaa !4
  %.not.i = icmp eq i32 %10, 0
  br i1 %.not.i, label %_ZNK4ncnn3Mat8elembitsEv.exit.thread, label %_ZNK4ncnn3Mat8elembitsEv.exit

_ZNK4ncnn3Mat8elembitsEv.exit:                    ; preds = %3
  %11 = getelementptr inbounds nuw i8, ptr %1, i64 16
  %12 = load i64, ptr %11, align 8, !tbaa !13
  %.tr.i = trunc i64 %12 to i32
  %13 = shl i32 %.tr.i, 3
  %14 = sdiv i32 %13, %10
  %15 = icmp eq i32 %14, 8
  br i1 %15, label %16, label %_ZNK4ncnn3Mat8elembitsEv.exit.thread

16:                                               ; preds = %_ZNK4ncnn3Mat8elembitsEv.exit
  %17 = getelementptr inbounds nuw i8, ptr %1, i64 44
  %18 = load i32, ptr %17, align 4, !tbaa !14
  %19 = getelementptr inbounds nuw i8, ptr %1, i64 48
  %20 = load i32, ptr %19, align 8, !tbaa !15
  %21 = getelementptr inbounds nuw i8, ptr %1, i64 52
  %22 = load i32, ptr %21, align 4, !tbaa !16
  call void @llvm.lifetime.start.p0(i64 4, ptr nonnull %4) #7
  %23 = getelementptr inbounds nuw i8, ptr %1, i64 56
  %24 = load i32, ptr %23, align 8, !tbaa !17
  store i32 %24, ptr %4, align 4, !tbaa !18
  call void @llvm.lifetime.start.p0(i64 4, ptr nonnull %5) #7
  %25 = mul nsw i32 %20, %18
  %26 = mul nsw i32 %25, %22
  store i32 %26, ptr %5, align 4, !tbaa !18
  %27 = getelementptr inbounds nuw i8, ptr %0, i64 208
  %28 = load float, ptr %27, align 8, !tbaa !19
  %29 = fcmp fast oeq float %28, 0.000000e+00
  br i1 %29, label %.sink.split.i, label %_ZNK4ncnn15ReLU_x86_avx51220forward_inplace_int8ERNS_3MatERKNS_6OptionE.exit

.sink.split.i:                                    ; preds = %16
  %30 = icmp eq i32 %10, 8
  %_ZNK4ncnn15ReLU_x86_avx51220forward_inplace_int8ERNS_3MatERKNS_6OptionE.omp_outlined._ZNK4ncnn15ReLU_x86_avx51220forward_inplace_int8ERNS_3MatERKNS_6OptionE.omp_outlined.2.i = select i1 %30, ptr @_ZNK4ncnn15ReLU_x86_avx51220forward_inplace_int8ERNS_3MatERKNS_6OptionE.omp_outlined, ptr @_ZNK4ncnn15ReLU_x86_avx51220forward_inplace_int8ERNS_3MatERKNS_6OptionE.omp_outlined.2
  %31 = getelementptr inbounds nuw i8, ptr %2, i64 4
  %32 = load i32, ptr %31, align 4, !tbaa !36
  tail call void @__kmpc_push_num_threads(ptr nonnull @2, i32 %8, i32 %32)
  call void (ptr, i32, ptr, ...) @__kmpc_fork_call(ptr nonnull @2, i32 3, ptr nonnull %_ZNK4ncnn15ReLU_x86_avx51220forward_inplace_int8ERNS_3MatERKNS_6OptionE.omp_outlined._ZNK4ncnn15ReLU_x86_avx51220forward_inplace_int8ERNS_3MatERKNS_6OptionE.omp_outlined.2.i, ptr nonnull %4, ptr nonnull align 8 dereferenceable(72) %1, ptr nonnull %5)
  br label %_ZNK4ncnn15ReLU_x86_avx51220forward_inplace_int8ERNS_3MatERKNS_6OptionE.exit

_ZNK4ncnn15ReLU_x86_avx51220forward_inplace_int8ERNS_3MatERKNS_6OptionE.exit: ; preds = %16, %.sink.split.i
  call void @llvm.lifetime.end.p0(i64 4, ptr nonnull %5) #7
  call void @llvm.lifetime.end.p0(i64 4, ptr nonnull %4) #7
  br label %52

_ZNK4ncnn3Mat8elembitsEv.exit.thread:             ; preds = %3, %_ZNK4ncnn3Mat8elembitsEv.exit
  %33 = getelementptr inbounds nuw i8, ptr %1, i64 44
  %34 = load i32, ptr %33, align 4, !tbaa !14
  %35 = getelementptr inbounds nuw i8, ptr %1, i64 48
  %36 = load i32, ptr %35, align 8, !tbaa !15
  %37 = getelementptr inbounds nuw i8, ptr %1, i64 52
  %38 = load i32, ptr %37, align 4, !tbaa !16
  call void @llvm.lifetime.start.p0(i64 4, ptr nonnull %6) #7
  %39 = getelementptr inbounds nuw i8, ptr %1, i64 56
  %40 = load i32, ptr %39, align 8, !tbaa !17
  store i32 %40, ptr %6, align 4, !tbaa !18
  call void @llvm.lifetime.start.p0(i64 4, ptr nonnull %7) #7
  %41 = mul i32 %34, %10
  %42 = mul i32 %41, %36
  %43 = mul i32 %42, %38
  store i32 %43, ptr %7, align 4, !tbaa !18
  %44 = getelementptr inbounds nuw i8, ptr %0, i64 208
  %45 = load float, ptr %44, align 8, !tbaa !19
  %46 = fcmp fast oeq float %45, 0.000000e+00
  %47 = getelementptr inbounds nuw i8, ptr %2, i64 4
  %48 = load i32, ptr %47, align 4, !tbaa !36
  tail call void @__kmpc_push_num_threads(ptr nonnull @2, i32 %8, i32 %48)
  br i1 %46, label %49, label %50

49:                                               ; preds = %_ZNK4ncnn3Mat8elembitsEv.exit.thread
  call void (ptr, i32, ptr, ...) @__kmpc_fork_call(ptr nonnull @2, i32 3, ptr nonnull @_ZNK4ncnn15ReLU_x86_avx51215forward_inplaceERNS_3MatERKNS_6OptionE.omp_outlined, ptr nonnull %6, ptr nonnull %1, ptr nonnull %7)
  br label %51

50:                                               ; preds = %_ZNK4ncnn3Mat8elembitsEv.exit.thread
  call void (ptr, i32, ptr, ...) @__kmpc_fork_call(ptr nonnull @2, i32 4, ptr nonnull @_ZNK4ncnn15ReLU_x86_avx51215forward_inplaceERNS_3MatERKNS_6OptionE.omp_outlined.1, ptr nonnull %6, ptr nonnull %1, ptr nonnull %0, ptr nonnull %7)
  br label %51

51:                                               ; preds = %50, %49
  call void @llvm.lifetime.end.p0(i64 4, ptr nonnull %7) #7
  call void @llvm.lifetime.end.p0(i64 4, ptr nonnull %6) #7
  br label %52

52:                                               ; preds = %51, %_ZNK4ncnn15ReLU_x86_avx51220forward_inplace_int8ERNS_3MatERKNS_6OptionE.exit
  ret i32 0
}